; Function Attrs: mustprogress uwtable
define void @_ZN32pxrInternal_v0_24__pxrReserved__15HdChangeTracker13BprimInsertedERKNS_7SdfPathEj(ptr noundef nonnull align 8 dereferenceable(3328) %0, ptr noundef nonnull align 4 dereferenceable(8) %1, i32 noundef %2) local_unnamed_addr #8 align 2 {
  %4 = load atomic i32, ptr @_ZN32pxrInternal_v0_24__pxrReserved__7TfDebug5_DataINS_26HD_BPRIM_ADDED__DebugCodesEE5nodesE seq_cst, align 16
  %5 = icmp eq i32 %4, 0
  br i1 %5, label %6, label %_ZN32pxrInternal_v0_24__pxrReserved__7TfDebug9IsEnabledINS_26HD_BPRIM_ADDED__DebugCodesEEEbT_.exit

6:                                                ; preds = %3
  tail call void @_ZN32pxrInternal_v0_24__pxrReserved__7TfDebug15_InitializeNodeERNS0_5_NodeEPKc(ptr noundef nonnull align 4 dereferenceable(4) @_ZN32pxrInternal_v0_24__pxrReserved__7TfDebug5_DataINS_26HD_BPRIM_ADDED__DebugCodesEE5nodesE, ptr noundef nonnull @.str.77)
  %7 = load atomic i32, ptr @_ZN32pxrInternal_v0_24__pxrReserved__7TfDebug5_DataINS_26HD_BPRIM_ADDED__DebugCodesEE5nodesE seq_cst, align 16
  br label %_ZN32pxrInternal_v0_24__pxrReserved__7TfDebug9IsEnabledINS_26HD_BPRIM_ADDED__DebugCodesEEEbT_.exit

_ZN32pxrInternal_v0_24__pxrReserved__7TfDebug9IsEnabledINS_26HD_BPRIM_ADDED__DebugCodesEEEbT_.exit: ; preds = %3, %6
  %.0.i = phi i32 [ %7, %6 ], [ %4, %3 ]
  %8 = icmp eq i32 %.0.i, 2
  br i1 %8, label %9, label %11

9:                                                ; preds = %_ZN32pxrInternal_v0_24__pxrReserved__7TfDebug9IsEnabledINS_26HD_BPRIM_ADDED__DebugCodesEEEbT_.exit
  %10 = tail call noundef ptr @_ZNK32pxrInternal_v0_24__pxrReserved__7SdfPath7GetTextEv(ptr noundef nonnull align 4 dereferenceable(8) %1)
  tail call void (ptr, ...) @_ZN32pxrInternal_v0_24__pxrReserved__7TfDebug6Helper3MsgEPKcz(ptr noundef nonnull @.str.29, ptr noundef %10)
  br label %11

11:                                               ; preds = %_ZN32pxrInternal_v0_24__pxrReserved__7TfDebug9IsEnabledINS_26HD_BPRIM_ADDED__DebugCodesEEEbT_.exit, %9
  %12 = getelementptr inbounds nuw i8, ptr %0, i64 232
  %13 = tail call noundef nonnull align 4 dereferenceable(4) ptr @_ZNSt8__detail9_Map_baseIN32pxrInternal_v0_24__pxrReserved__7SdfPathESt4pairIKS2_jESaIS5_ENS_10_Select1stESt8equal_toIS2_ENS2_4HashENS_18_Mod_range_hashingENS_20_Default_ranged_hashENS_20_Prime_rehash_policyENS_17_Hashtable_traitsILb1ELb0ELb1EEELb1EEixERS4_(ptr noundef nonnull align 1 dereferenceable(1) %12, ptr noundef nonnull align 4 dereferenceable(8) %1)
  store i32 %2, ptr %13, align 4
  %14 = getelementptr inbounds nuw i8, ptr %0, i64 3300
  %15 = load i32, ptr %14, align 4
  %16 = add i32 %15, 1
  store i32 %16, ptr %14, align 4
  %17 = getelementptr inbounds nuw i8, ptr %0, i64 3292
  %18 = load i32, ptr %17, align 4
  %19 = add i32 %18, 1
  store i32 %19, ptr %17, align 4
  ret void
}